; Function Attrs: nounwind uwtable
define range(i32 -2147483648, 2) i32 @ASN1_item_verify(ptr noundef %0, ptr noundef %1, ptr noundef %2, ptr noundef %3, ptr noundef %4) local_unnamed_addr #0 {
  %6 = tail call ptr @evp_md_ctx_new_ex(ptr noundef %4, ptr noundef null, ptr noundef null, ptr noundef null) #3
  %.not.i = icmp eq ptr %6, null
  br i1 %.not.i, label %ASN1_item_verify_ex.exit, label %7

7:                                                ; preds = %5
  %8 = tail call i32 @ASN1_item_verify_ctx(ptr noundef %0, ptr noundef %1, ptr noundef %2, ptr noundef %3, ptr noundef nonnull %6)
  %9 = tail call ptr @EVP_MD_CTX_get_pkey_ctx(ptr noundef nonnull %6) #3
  tail call void @EVP_PKEY_CTX_free(ptr noundef %9) #3
  tail call void @EVP_MD_CTX_free(ptr noundef nonnull %6) #3
  br label %ASN1_item_verify_ex.exit

ASN1_item_verify_ex.exit:                         ; preds = %5, %7
  %.0.i = phi i32 [ %8, %7 ], [ -1, %5 ]
  ret i32 %.0.i
}